; Function Attrs: mustprogress nofree nounwind willreturn memory(read) uwtable
define dso_local i64 @_ZNK5clang12StmtSequence14getSourceRangeEv(ptr noundef nonnull readonly align 8 captures(none) dereferenceable(24) %0) local_unnamed_addr #2 align 2 {
  %2 = getelementptr inbounds nuw i8, ptr %0, i64 20
  %3 = load i32, ptr %2, align 4
  %.not.i.i.i = icmp eq i32 %3, 0
  %4 = load ptr, ptr %0, align 8
  %5 = getelementptr inbounds nuw i8, ptr %4, i64 16
  %6 = getelementptr inbounds nuw i8, ptr %0, i64 16
  %7 = load i32, ptr %6, align 8
  %8 = zext i32 %7 to i64
  %9 = getelementptr inbounds nuw ptr, ptr %5, i64 %8
  %.0.i.i.i = select i1 %.not.i.i.i, ptr %0, ptr %9
  %10 = load ptr, ptr %.0.i.i.i, align 8
  %11 = tail call i32 @_ZNK5clang4Stmt11getBeginLocEv(ptr noundef nonnull align 8 dereferenceable(8) %10) #20
  %12 = sub i32 %3, %7
  %13 = icmp ne ptr %4, null
  %..i.i.i = zext i1 %13 to i32
  %.0.i2.i.i = select i1 %.not.i.i.i, i32 %..i.i.i, i32 %12
  %14 = add i32 %.0.i2.i.i, -1
  %15 = zext i32 %14 to i64
  %16 = getelementptr inbounds nuw ptr, ptr %.0.i.i.i, i64 %15
  %17 = load ptr, ptr %16, align 8
  %18 = tail call i32 @_ZNK5clang4Stmt9getEndLocEv(ptr noundef nonnull align 8 dereferenceable(8) %17) #20
  %.sroa.2.0.insert.ext = zext i32 %18 to i64
  %.sroa.2.0.insert.shift = shl nuw i64 %.sroa.2.0.insert.ext, 32
  %.sroa.0.0.insert.ext = zext i32 %11 to i64
  %.sroa.0.0.insert.insert = or disjoint i64 %.sroa.2.0.insert.shift, %.sroa.0.0.insert.ext
  ret i64 %.sroa.0.0.insert.insert
}